target datalayout = "e-m:e-p270:32:32-p271:32:32-p272:64:64-i64:64-i128:128-f80:128-n8:16:32:64-S128"
target triple = "x86_64-pc-linux-gnu"

%struct.CTState = type { ptr, i32, i32, ptr, ptr, ptr, %struct.CCallback, [128 x i16] }
%struct.CCallback = type { [8 x %union.FPRCBArg], [8 x i64], ptr, ptr, ptr, i32, i32, i32 }
%union.FPRCBArg = type { double }
%struct.CType = type { i32, i32, i16, i16, %struct.GCRef }
%struct.GCRef = type { i64 }

; Function Attrs: alwaysinline nounwind uwtable
define internal i32 @ctype_check(ptr noundef %0, i32 noundef %1) #5 {
  %3 = alloca ptr, align 8
  %4 = alloca i32, align 4
  store ptr %0, ptr %3, align 8, !tbaa !4
  store i32 %1, ptr %4, align 4, !tbaa !21
  %5 = load i32, ptr %4, align 4, !tbaa !21
  ret i32 %5
}

; Function Attrs: alwaysinline nounwind uwtable
define internal ptr @ctype_get(ptr noundef %0, i32 noundef %1) #5 {
  %3 = alloca ptr, align 8
  %4 = alloca i32, align 4
  store ptr %0, ptr %3, align 8, !tbaa !4
  store i32 %1, ptr %4, align 4, !tbaa !21
  %5 = load ptr, ptr %3, align 8, !tbaa !4
  %6 = getelementptr inbounds nuw %struct.CTState, ptr %5, i32 0, i32 0
  %7 = load ptr, ptr %6, align 8, !tbaa !24
  %8 = load ptr, ptr %3, align 8, !tbaa !4
  %9 = load i32, ptr %4, align 4, !tbaa !21
  %10 = call i32 @ctype_check(ptr noundef %8, i32 noundef %9)
  %11 = zext i32 %10 to i64
  %12 = getelementptr inbounds nuw %struct.CType, ptr %7, i64 %11
  ret ptr %12
}

; Function Attrs: alwaysinline nounwind uwtable
define internal i32 @hashrot(i32 noundef %0, i32 noundef %1) #5 {
  %3 = alloca i32, align 4
  %4 = alloca i32, align 4
  store i32 %0, ptr %3, align 4, !tbaa !21
  store i32 %1, ptr %4, align 4, !tbaa !21
  %5 = load i32, ptr %4, align 4, !tbaa !21
  %6 = load i32, ptr %3, align 4, !tbaa !21
  %7 = xor i32 %6, %5
  store i32 %7, ptr %3, align 4, !tbaa !21
  %8 = load i32, ptr %4, align 4, !tbaa !21
  %9 = shl i32 %8, 14
  %10 = load i32, ptr %4, align 4, !tbaa !21
  %11 = lshr i32 %10, 18
  %12 = or i32 %9, %11
  store i32 %12, ptr %4, align 4, !tbaa !21
  %13 = load i32, ptr %4, align 4, !tbaa !21
  %14 = load i32, ptr %3, align 4, !tbaa !21
  %15 = sub i32 %14, %13
  store i32 %15, ptr %3, align 4, !tbaa !21
  %16 = load i32, ptr %4, align 4, !tbaa !21
  %17 = shl i32 %16, 5
  %18 = load i32, ptr %4, align 4, !tbaa !21
  %19 = lshr i32 %18, 27
  %20 = or i32 %17, %19
  store i32 %20, ptr %4, align 4, !tbaa !21
  %21 = load i32, ptr %3, align 4, !tbaa !21
  %22 = load i32, ptr %4, align 4, !tbaa !21
  %23 = xor i32 %22, %21
  store i32 %23, ptr %4, align 4, !tbaa !21
  %24 = load i32, ptr %3, align 4, !tbaa !21
  %25 = shl i32 %24, 13
  %26 = load i32, ptr %3, align 4, !tbaa !21
  %27 = lshr i32 %26, 19
  %28 = or i32 %25, %27
  %29 = load i32, ptr %4, align 4, !tbaa !21
  %30 = sub i32 %29, %28
  store i32 %30, ptr %4, align 4, !tbaa !21
  %31 = load i32, ptr %4, align 4, !tbaa !21
  ret i32 %31
}

; Function Attrs: nounwind uwtable
define hidden i32 @lj_ctype_getname(ptr noundef %0, ptr noundef %1, ptr noundef %2, i32 noundef %3) #0 {
  %5 = alloca i32, align 4
  %6 = alloca ptr, align 8
  %7 = alloca ptr, align 8
  %8 = alloca ptr, align 8
  %9 = alloca i32, align 4
  %10 = alloca i32, align 4
  %11 = alloca ptr, align 8
  %12 = alloca i32, align 4
  store ptr %0, ptr %6, align 8, !tbaa !4
  store ptr %1, ptr %7, align 8, !tbaa !9
  store ptr %2, ptr %8, align 8, !tbaa !38
  store i32 %3, ptr %9, align 4, !tbaa !21
  call void @llvm.lifetime.start.p0(i64 4, ptr %10) #8
  %13 = load ptr, ptr %6, align 8, !tbaa !4
  %14 = getelementptr inbounds nuw %struct.CTState, ptr %13, i32 0, i32 7
  %15 = load ptr, ptr %8, align 8, !tbaa !38
  %16 = ptrtoint ptr %15 to i64
  %17 = trunc i64 %16 to i32
  %18 = load ptr, ptr %8, align 8, !tbaa !38
  %19 = ptrtoint ptr %18 to i64
  %20 = trunc i64 %19 to i32
  %21 = add i32 %20, -79764919
  %22 = call i32 @hashrot(i32 noundef %17, i32 noundef %21)
  %23 = and i32 %22, 127
  %24 = zext i32 %23 to i64
  %25 = getelementptr inbounds nuw [128 x i16], ptr %14, i64 0, i64 %24
  %26 = load i16, ptr %25, align 2, !tbaa !35
  %27 = zext i16 %26 to i32
  store i32 %27, ptr %10, align 4, !tbaa !21
  br label %28

28:                                               ; preds = %62, %4
  %29 = load i32, ptr %10, align 4, !tbaa !21
  %30 = icmp ne i32 %29, 0
  br i1 %30, label %31, label %63

31:                                               ; preds = %28
  call void @llvm.lifetime.start.p0(i64 8, ptr %11) #8
  %32 = load ptr, ptr %6, align 8, !tbaa !4
  %33 = load i32, ptr %10, align 4, !tbaa !21
  %34 = call ptr @ctype_get(ptr noundef %32, i32 noundef %33)
  store ptr %34, ptr %11, align 8, !tbaa !25
  %35 = load ptr, ptr %11, align 8, !tbaa !25
  %36 = getelementptr inbounds nuw %struct.CType, ptr %35, i32 0, i32 4
  %37 = getelementptr inbounds nuw %struct.GCRef, ptr %36, i32 0, i32 0
  %38 = load i64, ptr %37, align 8, !tbaa !34
  %39 = inttoptr i64 %38 to ptr
  %40 = load ptr, ptr %8, align 8, !tbaa !38
  %41 = icmp eq ptr %39, %40
  br i1 %41, label %42, label %55

42:                                               ; preds = %31
  %43 = load i32, ptr %9, align 4, !tbaa !21
  %44 = load ptr, ptr %11, align 8, !tbaa !25
  %45 = getelementptr inbounds nuw %struct.CType, ptr %44, i32 0, i32 0
  %46 = load i32, ptr %45, align 8, !tbaa !26
  %47 = lshr i32 %46, 28
  %48 = lshr i32 %43, %47
  %49 = and i32 %48, 1
  %50 = icmp ne i32 %49, 0
  br i1 %50, label %51, label %55

51:                                               ; preds = %42
  %52 = load ptr, ptr %11, align 8, !tbaa !25
  %53 = load ptr, ptr %7, align 8, !tbaa !9
  store ptr %52, ptr %53, align 8, !tbaa !25
  %54 = load i32, ptr %10, align 4, !tbaa !21
  store i32 %54, ptr %5, align 4
  store i32 1, ptr %12, align 4
  br label %60

55:                                               ; preds = %42, %31
  %56 = load ptr, ptr %11, align 8, !tbaa !25
  %57 = getelementptr inbounds nuw %struct.CType, ptr %56, i32 0, i32 3
  %58 = load i16, ptr %57, align 2, !tbaa !33
  %59 = zext i16 %58 to i32
  store i32 %59, ptr %10, align 4, !tbaa !21
  store i32 0, ptr %12, align 4
  br label %60

60:                                               ; preds = %55, %51
  call void @llvm.lifetime.end.p0(i64 8, ptr %11) #8
  %61 = load i32, ptr %12, align 4
  switch i32 %61, label %69 [
    i32 0, label %62
  ]

62:                                               ; preds = %60
  br label %28, !llvm.loop !40

63:                                               ; preds = %28
  %64 = load ptr, ptr %6, align 8, !tbaa !4
  %65 = getelementptr inbounds nuw %struct.CTState, ptr %64, i32 0, i32 0
  %66 = load ptr, ptr %65, align 8, !tbaa !24
  %67 = getelementptr inbounds %struct.CType, ptr %66, i64 0
  %68 = load ptr, ptr %7, align 8, !tbaa !9
  store ptr %67, ptr %68, align 8, !tbaa !25
  store i32 0, ptr %5, align 4
  store i32 1, ptr %12, align 4
  br label %69

69:                                               ; preds = %63, %60
  call void @llvm.lifetime.end.p0(i64 4, ptr %10) #8
  %70 = load i32, ptr %5, align 4
  ret i32 %70
}