; Function Attrs: nofree norecurse nosync nounwind memory(read, argmem: readwrite, inaccessiblemem: none) uwtable
define hidden range(i32 0, 65536) i32 @lj_ctype_getname(ptr noundef readonly captures(none) %0, ptr noundef writeonly captures(none) %1, ptr noundef %2, i32 noundef %3) local_unnamed_addr #5 {
  %5 = getelementptr inbounds nuw i8, ptr %0, i64 208
  %6 = ptrtoint ptr %2 to i64
  %7 = trunc i64 %6 to i32
  %8 = add i32 %7, -79764919
  %9 = xor i32 %8, %7
  %10 = tail call i32 @llvm.fshl.i32(i32 %8, i32 %8, i32 14)
  %11 = sub i32 %9, %10
  %12 = tail call i32 @llvm.fshl.i32(i32 %10, i32 %10, i32 5)
  %13 = xor i32 %12, %11
  %14 = lshr i32 %11, 19
  %15 = sub i32 %13, %14
  %16 = and i32 %15, 127
  %17 = zext nneg i32 %16 to i64
  %18 = getelementptr inbounds nuw [128 x i16], ptr %5, i64 0, i64 %17
  %.018.in26 = load i16, ptr %18, align 2, !tbaa !27
  %.not27 = icmp eq i16 %.018.in26, 0
  %.pre = load ptr, ptr %0, align 8, !tbaa !19
  br i1 %.not27, label %.thread, label %.lr.ph

.lr.ph:                                           ; preds = %4, %30
  %.018.in28 = phi i16 [ %.018.in, %30 ], [ %.018.in26, %4 ]
  %19 = zext i16 %.018.in28 to i64
  %20 = getelementptr inbounds nuw %struct.CType, ptr %.pre, i64 %19
  %21 = getelementptr inbounds nuw i8, ptr %20, i64 16
  %22 = load i64, ptr %21, align 8, !tbaa !22
  %23 = inttoptr i64 %22 to ptr
  %24 = icmp eq ptr %2, %23
  br i1 %24, label %25, label %30

25:                                               ; preds = %.lr.ph
  %26 = load i32, ptr %20, align 8, !tbaa !28
  %27 = lshr i32 %26, 28
  %28 = shl nuw nsw i32 1, %27
  %29 = and i32 %28, %3
  %.not20 = icmp eq i32 %29, 0
  br i1 %.not20, label %30, label %.thread.loopexit

30:                                               ; preds = %.lr.ph, %25
  %31 = getelementptr inbounds nuw i8, ptr %20, i64 10
  %.018.in = load i16, ptr %31, align 2, !tbaa !27
  %.not = icmp eq i16 %.018.in, 0
  br i1 %.not, label %.thread, label %.lr.ph, !llvm.loop !34

.thread.loopexit:                                 ; preds = %25
  %32 = zext i16 %.018.in28 to i32
  br label %.thread

.thread:                                          ; preds = %30, %4, %.thread.loopexit
  %.018.in25 = phi i32 [ %32, %.thread.loopexit ], [ 0, %4 ], [ 0, %30 ]
  %storemerge = phi ptr [ %20, %.thread.loopexit ], [ %.pre, %4 ], [ %.pre, %30 ]
  store ptr %storemerge, ptr %1, align 8, !tbaa !21
  ret i32 %.018.in25
}